target datalayout = "e-m:e-p270:32:32-p271:32:32-p272:64:64-i64:64-i128:128-f80:128-n8:16:32:64-S128"
target triple = "x86_64-pc-linux-gnu"

; Function Attrs: nounwind uwtable
define internal zeroext i8 @clip_pixel(i32 noundef %0) #0 {
  %2 = alloca i32, align 4
  store i32 %0, ptr %2, align 4
  %3 = load i32, ptr %2, align 4
  %4 = icmp sgt i32 %3, 255
  br i1 %4, label %5, label %6

5:                                                ; preds = %1
  br label %14

6:                                                ; preds = %1
  %7 = load i32, ptr %2, align 4
  %8 = icmp slt i32 %7, 0
  br i1 %8, label %9, label %10

9:                                                ; preds = %6
  br label %12

10:                                               ; preds = %6
  %11 = load i32, ptr %2, align 4
  br label %12

12:                                               ; preds = %10, %9
  %13 = phi i32 [ 0, %9 ], [ %11, %10 ]
  br label %14

14:                                               ; preds = %12, %5
  %15 = phi i32 [ 255, %5 ], [ %13, %12 ]
  %16 = trunc i32 %15 to i8
  ret i8 %16
}

; Function Attrs: nounwind uwtable
define internal i32 @get_scaled_luma_q0(i32 noundef %0, i16 noundef signext %1) #0 {
  %3 = alloca i32, align 4
  %4 = alloca i16, align 2
  %5 = alloca i32, align 4
  store i32 %0, ptr %3, align 4
  store i16 %1, ptr %4, align 2
  %6 = load i32, ptr %3, align 4
  %7 = load i16, ptr %4, align 2
  %8 = sext i16 %7 to i32
  %9 = mul nsw i32 %6, %8
  store i32 %9, ptr %5, align 4
  %10 = load i32, ptr %5, align 4
  %11 = icmp slt i32 %10, 0
  br i1 %11, label %12, label %18

12:                                               ; preds = %2
  %13 = load i32, ptr %5, align 4
  %14 = sub nsw i32 0, %13
  %15 = add nsw i32 %14, 32
  %16 = ashr i32 %15, 6
  %17 = sub nsw i32 0, %16
  br label %22

18:                                               ; preds = %2
  %19 = load i32, ptr %5, align 4
  %20 = add nsw i32 %19, 32
  %21 = ashr i32 %20, 6
  br label %22

22:                                               ; preds = %18, %12
  %23 = phi i32 [ %17, %12 ], [ %21, %18 ]
  ret i32 %23
}

; Function Attrs: nounwind uwtable
define internal void @cfl_predict_lbd_c(ptr noundef %0, ptr noundef %1, i32 noundef %2, i32 noundef %3, i32 noundef %4, i32 noundef %5) #0 {
  %7 = alloca ptr, align 8
  %8 = alloca ptr, align 8
  %9 = alloca i32, align 4
  %10 = alloca i32, align 4
  %11 = alloca i32, align 4
  %12 = alloca i32, align 4
  %13 = alloca i32, align 4
  %14 = alloca i32, align 4
  store ptr %0, ptr %7, align 8
  store ptr %1, ptr %8, align 8
  store i32 %2, ptr %9, align 4
  store i32 %3, ptr %10, align 4
  store i32 %4, ptr %11, align 4
  store i32 %5, ptr %12, align 4
  store i32 0, ptr %13, align 4
  br label %15

15:                                               ; preds = %54, %6
  %16 = load i32, ptr %13, align 4
  %17 = load i32, ptr %12, align 4
  %18 = icmp slt i32 %16, %17
  br i1 %18, label %19, label %57

19:                                               ; preds = %15
  store i32 0, ptr %14, align 4
  br label %20

20:                                               ; preds = %44, %19
  %21 = load i32, ptr %14, align 4
  %22 = load i32, ptr %11, align 4
  %23 = icmp slt i32 %21, %22
  br i1 %23, label %24, label %47

24:                                               ; preds = %20
  %25 = load i32, ptr %10, align 4
  %26 = load ptr, ptr %7, align 8
  %27 = load i32, ptr %14, align 4
  %28 = sext i32 %27 to i64
  %29 = getelementptr inbounds i16, ptr %26, i64 %28
  %30 = load i16, ptr %29, align 2
  %31 = call i32 @get_scaled_luma_q0(i32 noundef %25, i16 noundef signext %30)
  %32 = load ptr, ptr %8, align 8
  %33 = load i32, ptr %14, align 4
  %34 = sext i32 %33 to i64
  %35 = getelementptr inbounds i8, ptr %32, i64 %34
  %36 = load i8, ptr %35, align 1
  %37 = zext i8 %36 to i32
  %38 = add nsw i32 %31, %37
  %39 = call zeroext i8 @clip_pixel(i32 noundef %38)
  %40 = load ptr, ptr %8, align 8
  %41 = load i32, ptr %14, align 4
  %42 = sext i32 %41 to i64
  %43 = getelementptr inbounds i8, ptr %40, i64 %42
  store i8 %39, ptr %43, align 1
  br label %44

44:                                               ; preds = %24
  %45 = load i32, ptr %14, align 4
  %46 = add nsw i32 %45, 1
  store i32 %46, ptr %14, align 4
  br label %20, !llvm.loop !11

47:                                               ; preds = %20
  %48 = load i32, ptr %9, align 4
  %49 = load ptr, ptr %8, align 8
  %50 = sext i32 %48 to i64
  %51 = getelementptr inbounds i8, ptr %49, i64 %50
  store ptr %51, ptr %8, align 8
  %52 = load ptr, ptr %7, align 8
  %53 = getelementptr inbounds i16, ptr %52, i64 32
  store ptr %53, ptr %7, align 8
  br label %54

54:                                               ; preds = %47
  %55 = load i32, ptr %13, align 4
  %56 = add nsw i32 %55, 1
  store i32 %56, ptr %13, align 4
  br label %15, !llvm.loop !12

57:                                               ; preds = %15
  ret void
}

; Function Attrs: nounwind uwtable
define hidden void @cfl_predict_lbd_32x16_c(ptr noundef %0, ptr noundef %1, i32 noundef %2, i32 noundef %3) #0 {
  %5 = alloca ptr, align 8
  %6 = alloca ptr, align 8
  %7 = alloca i32, align 4
  %8 = alloca i32, align 4
  store ptr %0, ptr %5, align 8
  store ptr %1, ptr %6, align 8
  store i32 %2, ptr %7, align 4
  store i32 %3, ptr %8, align 4
  %9 = load ptr, ptr %5, align 8
  %10 = load ptr, ptr %6, align 8
  %11 = load i32, ptr %7, align 4
  %12 = load i32, ptr %8, align 4
  call void @cfl_predict_lbd_c(ptr noundef %9, ptr noundef %10, i32 noundef %11, i32 noundef %12, i32 noundef 32, i32 noundef 16)
  ret void
}